; ModuleID = '57/2161.c'
source_filename = "57/2161.c"
target datalayout = "e-m:e-p270:32:32-p271:32:32-p272:64:64-i64:64-f80:128-n8:16:32:64-S128"
target triple = "x86_64-pc-linux-gnu"

@.str = private unnamed_addr constant [3 x i8] c"%d\00", align 1
@.str.1 = private unnamed_addr constant [3 x i8] c"%s\00", align 1
@.str.2 = private unnamed_addr constant [3 x i8] c"%c\00", align 1
@.str.3 = private unnamed_addr constant [4 x i8] c"%c\0A\00", align 1

; Function Attrs: noinline nounwind uwtable
define dso_local void @main() #0 {
  %1 = alloca i32, align 4
  %2 = alloca i32, align 4
  %3 = alloca i32, align 4
  %4 = alloca i32, align 4
  %5 = alloca [100 x [20 x i8]], align 16
  %6 = call i32 (i8*, ...) @__isoc99_scanf(i8* getelementptr inbounds ([3 x i8], [3 x i8]* @.str, i64 0, i64 0), i32* %1)
  store i32 0, i32* %2, align 4
  br label %7

7:                                                ; preds = %17, %0
  %8 = load i32, i32* %2, align 4
  %9 = load i32, i32* %1, align 4
  %10 = icmp slt i32 %8, %9
  br i1 %10, label %11, label %20

11:                                               ; preds = %7
  %12 = load i32, i32* %2, align 4
  %13 = sext i32 %12 to i64
  %14 = getelementptr inbounds [100 x [20 x i8]], [100 x [20 x i8]]* %5, i64 0, i64 %13
  %15 = getelementptr inbounds [20 x i8], [20 x i8]* %14, i64 0, i64 0
  %16 = call i32 (i8*, ...) @__isoc99_scanf(i8* getelementptr inbounds ([3 x i8], [3 x i8]* @.str.1, i64 0, i64 0), i8* %15)
  br label %17

17:                                               ; preds = %11
  %18 = load i32, i32* %2, align 4
  %19 = add nsw i32 %18, 1
  store i32 %19, i32* %2, align 4
  br label %7

20:                                               ; preds = %7
  store i32 0, i32* %2, align 4
  br label %21

21:                                               ; preds = %157, %20
  %22 = load i32, i32* %2, align 4
  %23 = load i32, i32* %1, align 4
  %24 = icmp slt i32 %22, %23
  br i1 %24, label %25, label %160

25:                                               ; preds = %21
  %26 = load i32, i32* %2, align 4
  %27 = sext i32 %26 to i64
  %28 = getelementptr inbounds [100 x [20 x i8]], [100 x [20 x i8]]* %5, i64 0, i64 %27
  %29 = getelementptr inbounds [20 x i8], [20 x i8]* %28, i64 0, i64 0
  %30 = call i64 @strlen(i8* %29) #3
  %31 = trunc i64 %30 to i32
  store i32 %31, i32* %3, align 4
  %32 = load i32, i32* %2, align 4
  %33 = sext i32 %32 to i64
  %34 = getelementptr inbounds [100 x [20 x i8]], [100 x [20 x i8]]* %5, i64 0, i64 %33
  %35 = load i32, i32* %3, align 4
  %36 = sub nsw i32 %35, 1
  %37 = sext i32 %36 to i64
  %38 = getelementptr inbounds [20 x i8], [20 x i8]* %34, i64 0, i64 %37
  %39 = load i8, i8* %38, align 1
  %40 = sext i8 %39 to i32
  %41 = icmp eq i32 %40, 114
  br i1 %41, label %42, label %72

42:                                               ; preds = %25
  store i32 0, i32* %4, align 4
  br label %43

43:                                               ; preds = %58, %42
  %44 = load i32, i32* %4, align 4
  %45 = load i32, i32* %3, align 4
  %46 = sub nsw i32 %45, 3
  %47 = icmp slt i32 %44, %46
  br i1 %47, label %48, label %61

48:                                               ; preds = %43
  %49 = load i32, i32* %2, align 4
  %50 = sext i32 %49 to i64
  %51 = getelementptr inbounds [100 x [20 x i8]], [100 x [20 x i8]]* %5, i64 0, i64 %50
  %52 = load i32, i32* %4, align 4
  %53 = sext i32 %52 to i64
  %54 = getelementptr inbounds [20 x i8], [20 x i8]* %51, i64 0, i64 %53
  %55 = load i8, i8* %54, align 1
  %56 = sext i8 %55 to i32
  %57 = call i32 (i8*, ...) @printf(i8* getelementptr inbounds ([3 x i8], [3 x i8]* @.str.2, i64 0, i64 0), i32 %56)
  br label %58

58:                                               ; preds = %48
  %59 = load i32, i32* %4, align 4
  %60 = add nsw i32 %59, 1
  store i32 %60, i32* %4, align 4
  br label %43

61:                                               ; preds = %43
  %62 = load i32, i32* %2, align 4
  %63 = sext i32 %62 to i64
  %64 = getelementptr inbounds [100 x [20 x i8]], [100 x [20 x i8]]* %5, i64 0, i64 %63
  %65 = load i32, i32* %3, align 4
  %66 = sub nsw i32 %65, 3
  %67 = sext i32 %66 to i64
  %68 = getelementptr inbounds [20 x i8], [20 x i8]* %64, i64 0, i64 %67
  %69 = load i8, i8* %68, align 1
  %70 = sext i8 %69 to i32
  %71 = call i32 (i8*, ...) @printf(i8* getelementptr inbounds ([4 x i8], [4 x i8]* @.str.3, i64 0, i64 0), i32 %70)
  br label %156

72:                                               ; preds = %25
  %73 = load i32, i32* %2, align 4
  %74 = sext i32 %73 to i64
  %75 = getelementptr inbounds [100 x [20 x i8]], [100 x [20 x i8]]* %5, i64 0, i64 %74
  %76 = load i32, i32* %3, align 4
  %77 = sub nsw i32 %76, 1
  %78 = sext i32 %77 to i64
  %79 = getelementptr inbounds [20 x i8], [20 x i8]* %75, i64 0, i64 %78
  %80 = load i8, i8* %79, align 1
  %81 = sext i8 %80 to i32
  %82 = icmp eq i32 %81, 121
  br i1 %82, label %83, label %113

83:                                               ; preds = %72
  store i32 0, i32* %4, align 4
  br label %84

84:                                               ; preds = %99, %83
  %85 = load i32, i32* %4, align 4
  %86 = load i32, i32* %3, align 4
  %87 = sub nsw i32 %86, 3
  %88 = icmp slt i32 %85, %87
  br i1 %88, label %89, label %102

89:                                               ; preds = %84
  %90 = load i32, i32* %2, align 4
  %91 = sext i32 %90 to i64
  %92 = getelementptr inbounds [100 x [20 x i8]], [100 x [20 x i8]]* %5, i64 0, i64 %91
  %93 = load i32, i32* %4, align 4
  %94 = sext i32 %93 to i64
  %95 = getelementptr inbounds [20 x i8], [20 x i8]* %92, i64 0, i64 %94
  %96 = load i8, i8* %95, align 1
  %97 = sext i8 %96 to i32
  %98 = call i32 (i8*, ...) @printf(i8* getelementptr inbounds ([3 x i8], [3 x i8]* @.str.2, i64 0, i64 0), i32 %97)
  br label %99

99:                                               ; preds = %89
  %100 = load i32, i32* %4, align 4
  %101 = add nsw i32 %100, 1
  store i32 %101, i32* %4, align 4
  br label %84

102:                                              ; preds = %84
  %103 = load i32, i32* %2, align 4
  %104 = sext i32 %103 to i64
  %105 = getelementptr inbounds [100 x [20 x i8]], [100 x [20 x i8]]* %5, i64 0, i64 %104
  %106 = load i32, i32* %3, align 4
  %107 = sub nsw i32 %106, 3
  %108 = sext i32 %107 to i64
  %109 = getelementptr inbounds [20 x i8], [20 x i8]* %105, i64 0, i64 %108
  %110 = load i8, i8* %109, align 1
  %111 = sext i8 %110 to i32
  %112 = call i32 (i8*, ...) @printf(i8* getelementptr inbounds ([4 x i8], [4 x i8]* @.str.3, i64 0, i64 0), i32 %111)
  br label %155

113:                                              ; preds = %72
  %114 = load i32, i32* %2, align 4
  %115 = sext i32 %114 to i64
  %116 = getelementptr inbounds [100 x [20 x i8]], [100 x [20 x i8]]* %5, i64 0, i64 %115
  %117 = load i32, i32* %3, align 4
  %118 = sub nsw i32 %117, 1
  %119 = sext i32 %118 to i64
  %120 = getelementptr inbounds [20 x i8], [20 x i8]* %116, i64 0, i64 %119
  %121 = load i8, i8* %120, align 1
  %122 = sext i8 %121 to i32
  %123 = icmp eq i32 %122, 103
  br i1 %123, label %124, label %154

124:                                              ; preds = %113
  store i32 0, i32* %4, align 4
  br label %125

125:                                              ; preds = %140, %124
  %126 = load i32, i32* %4, align 4
  %127 = load i32, i32* %3, align 4
  %128 = sub nsw i32 %127, 4
  %129 = icmp slt i32 %126, %128
  br i1 %129, label %130, label %143

130:                                              ; preds = %125
  %131 = load i32, i32* %2, align 4
  %132 = sext i32 %131 to i64
  %133 = getelementptr inbounds [100 x [20 x i8]], [100 x [20 x i8]]* %5, i64 0, i64 %132
  %134 = load i32, i32* %4, align 4
  %135 = sext i32 %134 to i64
  %136 = getelementptr inbounds [20 x i8], [20 x i8]* %133, i64 0, i64 %135
  %137 = load i8, i8* %136, align 1
  %138 = sext i8 %137 to i32
  %139 = call i32 (i8*, ...) @printf(i8* getelementptr inbounds ([3 x i8], [3 x i8]* @.str.2, i64 0, i64 0), i32 %138)
  br label %140

140:                                              ; preds = %130
  %141 = load i32, i32* %4, align 4
  %142 = add nsw i32 %141, 1
  store i32 %142, i32* %4, align 4
  br label %125

143:                                              ; preds = %125
  %144 = load i32, i32* %2, align 4
  %145 = sext i32 %144 to i64
  %146 = getelementptr inbounds [100 x [20 x i8]], [100 x [20 x i8]]* %5, i64 0, i64 %145
  %147 = load i32, i32* %3, align 4
  %148 = sub nsw i32 %147, 4
  %149 = sext i32 %148 to i64
  %150 = getelementptr inbounds [20 x i8], [20 x i8]* %146, i64 0, i64 %149
  %151 = load i8, i8* %150, align 1
  %152 = sext i8 %151 to i32
  %153 = call i32 (i8*, ...) @printf(i8* getelementptr inbounds ([4 x i8], [4 x i8]* @.str.3, i64 0, i64 0), i32 %152)
  br label %154

154:                                              ; preds = %143, %113
  br label %155

155:                                              ; preds = %154, %102
  br label %156

156:                                              ; preds = %155, %61
  br label %157

157:                                              ; preds = %156
  %158 = load i32, i32* %2, align 4
  %159 = add nsw i32 %158, 1
  store i32 %159, i32* %2, align 4
  br label %21

160:                                              ; preds = %21
  ret void
}

declare dso_local i32 @__isoc99_scanf(i8*, ...) #1

; Function Attrs: nounwind readonly
declare dso_local i64 @strlen(i8*) #2

declare dso_local i32 @printf(i8*, ...) #1


!llvm.module.flags = !{!0}
!llvm.ident = !{!1}

!0 = !{i32 1, !"wchar_size", i32 4}
!1 = !{!"clang version 10.0.0-4ubuntu1 "}
